; Function Attrs: mustprogress uwtable
define hidden noundef zeroext i1 @_ZN13hilbert_basis11is_subsumedENS_8offset_tE(ptr nocapture noundef nonnull align 8 dereferenceable(127) %this, i32 %idx.coerce) local_unnamed_addr #3 align 2 {
entry:
  %ref.tmp = alloca %"class.hilbert_basis::values", align 8
  %m_index = getelementptr inbounds i8, ptr %this, i64 104
  %0 = load ptr, ptr %m_index, align 8
  %m_ineqs.i = getelementptr inbounds i8, ptr %this, i64 8
  %1 = load ptr, ptr %m_ineqs.i, align 8
  %cmp.i.i = icmp eq ptr %1, null
  br i1 %cmp.i.i, label %_ZNK13hilbert_basis3vecENS_8offset_tE.exit, label %if.end.i.i

if.end.i.i:                                       ; preds = %entry
  %arrayidx.i.i = getelementptr inbounds i8, ptr %1, i64 -4
  %2 = load i32, ptr %arrayidx.i.i, align 4
  %3 = zext i32 %2 to i64
  br label %_ZNK13hilbert_basis3vecENS_8offset_tE.exit

_ZNK13hilbert_basis3vecENS_8offset_tE.exit:       ; preds = %entry, %if.end.i.i
  %retval.0.i.i = phi i64 [ %3, %if.end.i.i ], [ 0, %entry ]
  %m_store.i = getelementptr inbounds i8, ptr %this, i64 24
  %4 = load ptr, ptr %m_store.i, align 8
  %idx.ext.i = zext i32 %idx.coerce to i64
  %add.ptr.i = getelementptr inbounds %class.checked_int64, ptr %4, i64 %idx.ext.i
  %add.ptr.i.i = getelementptr inbounds %class.checked_int64, ptr %add.ptr.i, i64 %retval.0.i.i
  store ptr %add.ptr.i.i, ptr %ref.tmp, align 8
  %call6 = call noundef zeroext i1 @_ZN13hilbert_basis5index4findENS_8offset_tERKNS_6valuesE(ptr noundef nonnull align 8 dereferenceable(1340) %0, i32 %idx.coerce, ptr noundef nonnull align 8 dereferenceable(8) %ref.tmp)
  br i1 %call6, label %if.then, label %return

if.then:                                          ; preds = %_ZNK13hilbert_basis3vecENS_8offset_tE.exit
  %m_stats = getelementptr inbounds i8, ptr %this, i64 88
  %5 = load i32, ptr %m_stats, align 8
  %inc = add i32 %5, 1
  store i32 %inc, ptr %m_stats, align 8
  br label %return

return:                                           ; preds = %_ZNK13hilbert_basis3vecENS_8offset_tE.exit, %if.then
  ret i1 %call6
}